(lp0
F1.0
aF0.625
aF0.625
aF0.625
aF0.625
aF0.625
aF0.625
aF0.625
aF0.625
aF0.8333333333333334
aF0.8333333333333334
aF0.5555555555555556
aF0.5555555555555556
aF0.5555555555555556
aF0.5555555555555556
aF0.625
aF0.8333333333333334
aF0.5555555555555556
aF0.5555555555555556
aF0.5555555555555556
aF0.5555555555555556
aF0.625
aF0.5555555555555556
aF0.5555555555555556
aF0.5555555555555556
aF0.5555555555555556
aF0.8333333333333334
aF0.8333333333333334
aF0.5555555555555556
aF0.625
aF0.8333333333333334
aF0.5555555555555556
aF0.625
aF0.5555555555555556
aF0.8333333333333334
aF0.8333333333333334
aF0.8333333333333334
aF0.8333333333333334
aF0.8333333333333334
aF0.625
aF0.625
aF0.625
aF0.5555555555555556
aF0.5555555555555556
aF0.625
aF0.5555555555555556
aF0.5555555555555556
aF0.5555555555555556
aF0.625
aF0.5555555555555556
aF0.5555555555555556
aF0.5555555555555556
aF0.5555555555555556
aF0.8333333333333334
aF0.5555555555555556
aF0.625
aF0.625
aF0.625
aF0.625
aF0.625
aF0.625
aF0.625
aF1.0
a.